target datalayout = "e-m:e-p270:32:32-p271:32:32-p272:64:64-i64:64-i128:128-f80:128-n8:16:32:64-S128"
target triple = "x86_64-pc-linux-gnu"

%"class.std::__shared_count" = type { ptr }
%"class.arrow::Status" = type { ptr }
%"class.std::vector.43" = type { %"struct.std::_Vector_base.44" }
%"struct.std::_Vector_base.44" = type { %"struct.std::_Vector_base<arrow::ipc::internal::BufferMetadata, std::allocator<arrow::ipc::internal::BufferMetadata>>::_Vector_impl" }
%"struct.std::_Vector_base<arrow::ipc::internal::BufferMetadata, std::allocator<arrow::ipc::internal::BufferMetadata>>::_Vector_impl" = type { %"struct.std::_Vector_base<arrow::ipc::internal::BufferMetadata, std::allocator<arrow::ipc::internal::BufferMetadata>>::_Vector_impl_data" }
%"struct.std::_Vector_base<arrow::ipc::internal::BufferMetadata, std::allocator<arrow::ipc::internal::BufferMetadata>>::_Vector_impl_data" = type { ptr, ptr, ptr }
%"struct.arrow::ipc::IpcWriteOptions" = type <{ i8, [3 x i8], i32, i32, i8, [3 x i8], ptr, %"class.std::shared_ptr.15", %"class.std::optional", i8, i8, i8, i8, [4 x i8] }>
%"class.std::shared_ptr.15" = type { %"class.std::__shared_ptr.16" }
%"class.std::__shared_ptr.16" = type { ptr, %"class.std::__shared_count" }
%"class.std::optional" = type { %"struct.std::_Optional_base" }
%"struct.std::_Optional_base" = type { %"struct.std::_Optional_payload" }
%"struct.std::_Optional_payload" = type { %"struct.std::_Optional_payload_base.base", [7 x i8] }
%"struct.std::_Optional_payload_base.base" = type <{ %"union.std::_Optional_payload_base<double>::_Storage", i8 }>
%"union.std::_Optional_payload_base<double>::_Storage" = type { double }
%"class.arrow::ipc::internal::SparseTensorSerializer" = type { ptr, %"class.std::vector.43", i64, %"struct.arrow::ipc::IpcWriteOptions" }

; Function Attrs: mustprogress nounwind uwtable
define linkonce_odr void @_ZNSt15__new_allocatorIN5arrow3ipc8internal14BufferMetadataEE10deallocateEPS3_m(ptr noundef nonnull align 1 dereferenceable(1) %0, ptr noundef %1, i64 noundef %2) #0 comdat align 2 {
  %4 = alloca ptr, align 8
  %5 = alloca ptr, align 8
  %6 = alloca i64, align 8
  store ptr %0, ptr %4, align 8, !tbaa !459
  store ptr %1, ptr %5, align 8, !tbaa !577
  store i64 %2, ptr %6, align 8, !tbaa !43
  %7 = load ptr, ptr %5, align 8, !tbaa !577
  %8 = load i64, ptr %6, align 8, !tbaa !43
  %9 = mul i64 %8, 16
  call void @_ZdlPvm(ptr noundef %7, i64 noundef %9) #22
  ret void
}

; Function Attrs: mustprogress nounwind uwtable
define linkonce_odr void @_ZNSt15__new_allocatorIN5arrow3ipc8internal14BufferMetadataEEC2Ev(ptr noundef nonnull align 1 dereferenceable(1) %0) unnamed_addr #0 comdat align 2 {
  %2 = alloca ptr, align 8
  store ptr %0, ptr %2, align 8, !tbaa !459
  ret void
}

; Function Attrs: mustprogress uwtable
define linkonce_odr void @_ZNSt16allocator_traitsISaIN5arrow3ipc8internal14BufferMetadataEEE10deallocateERS4_PS3_m(ptr noundef nonnull align 1 dereferenceable(1) %0, ptr noundef %1, i64 noundef %2) #1 comdat align 2 {
  %4 = alloca ptr, align 8
  %5 = alloca ptr, align 8
  %6 = alloca i64, align 8
  store ptr %0, ptr %4, align 8, !tbaa !452
  store ptr %1, ptr %5, align 8, !tbaa !577
  store i64 %2, ptr %6, align 8, !tbaa !43
  %7 = load ptr, ptr %4, align 8, !tbaa !452
  %8 = load ptr, ptr %5, align 8, !tbaa !577
  %9 = load i64, ptr %6, align 8, !tbaa !43
  call void @_ZNSt15__new_allocatorIN5arrow3ipc8internal14BufferMetadataEE10deallocateEPS3_m(ptr noundef nonnull align 1 dereferenceable(1) %7, ptr noundef %8, i64 noundef %9)
  ret void
}

; Function Attrs: mustprogress nounwind uwtable
define linkonce_odr void @_ZNSt12_Destroy_auxILb1EE9__destroyIPN5arrow3ipc8internal14BufferMetadataEEEvT_S7_(ptr noundef %0, ptr noundef %1) #0 comdat align 2 {
  %3 = alloca ptr, align 8
  %4 = alloca ptr, align 8
  store ptr %0, ptr %3, align 8, !tbaa !577
  store ptr %1, ptr %4, align 8, !tbaa !577
  ret void
}

; Function Attrs: mustprogress nounwind uwtable
define linkonce_odr void @_ZNSt12_Vector_baseIN5arrow3ipc8internal14BufferMetadataESaIS3_EE17_Vector_impl_dataC2Ev(ptr noundef nonnull align 8 dereferenceable(24) %0) unnamed_addr #0 comdat align 2 {
  %2 = alloca ptr, align 8
  store ptr %0, ptr %2, align 8, !tbaa !454
  %3 = load ptr, ptr %2, align 8
  %4 = getelementptr inbounds nuw %"struct.std::_Vector_base<arrow::ipc::internal::BufferMetadata, std::allocator<arrow::ipc::internal::BufferMetadata>>::_Vector_impl_data", ptr %3, i32 0, i32 0
  store ptr null, ptr %4, align 8, !tbaa !456
  %5 = getelementptr inbounds nuw %"struct.std::_Vector_base<arrow::ipc::internal::BufferMetadata, std::allocator<arrow::ipc::internal::BufferMetadata>>::_Vector_impl_data", ptr %3, i32 0, i32 1
  store ptr null, ptr %5, align 8, !tbaa !457
  %6 = getelementptr inbounds nuw %"struct.std::_Vector_base<arrow::ipc::internal::BufferMetadata, std::allocator<arrow::ipc::internal::BufferMetadata>>::_Vector_impl_data", ptr %3, i32 0, i32 2
  store ptr null, ptr %6, align 8, !tbaa !458
  ret void
}

; Function Attrs: mustprogress nounwind uwtable
define linkonce_odr void @_ZNSaIN5arrow3ipc8internal14BufferMetadataEEC2Ev(ptr noundef nonnull align 1 dereferenceable(1) %0) unnamed_addr #0 comdat align 2 {
  %2 = alloca ptr, align 8
  store ptr %0, ptr %2, align 8, !tbaa !452
  %3 = load ptr, ptr %2, align 8
  call void @_ZNSt15__new_allocatorIN5arrow3ipc8internal14BufferMetadataEEC2Ev(ptr noundef nonnull align 1 dereferenceable(1) %3) #17
  ret void
}

; Function Attrs: mustprogress nounwind uwtable
define linkonce_odr void @_ZNSt15__new_allocatorIN5arrow3ipc8internal14BufferMetadataEED2Ev(ptr noundef nonnull align 1 dereferenceable(1) %0) unnamed_addr #0 comdat align 2 {
  %2 = alloca ptr, align 8
  store ptr %0, ptr %2, align 8, !tbaa !459
  ret void
}

; Function Attrs: mustprogress uwtable
define linkonce_odr void @_ZNSt12_Vector_baseIN5arrow3ipc8internal14BufferMetadataESaIS3_EE13_M_deallocateEPS3_m(ptr noundef nonnull align 8 dereferenceable(24) %0, ptr noundef %1, i64 noundef %2) #1 comdat align 2 {
  %4 = alloca ptr, align 8
  %5 = alloca ptr, align 8
  %6 = alloca i64, align 8
  store ptr %0, ptr %4, align 8, !tbaa !448
  store ptr %1, ptr %5, align 8, !tbaa !577
  store i64 %2, ptr %6, align 8, !tbaa !43
  %7 = load ptr, ptr %4, align 8
  %8 = load ptr, ptr %5, align 8, !tbaa !577
  %9 = icmp ne ptr %8, null
  br i1 %9, label %10, label %14

10:                                               ; preds = %3
  %11 = getelementptr inbounds nuw %"struct.std::_Vector_base.44", ptr %7, i32 0, i32 0
  %12 = load ptr, ptr %5, align 8, !tbaa !577
  %13 = load i64, ptr %6, align 8, !tbaa !43
  call void @_ZNSt16allocator_traitsISaIN5arrow3ipc8internal14BufferMetadataEEE10deallocateERS4_PS3_m(ptr noundef nonnull align 1 dereferenceable(1) %11, ptr noundef %12, i64 noundef %13)
  br label %14

14:                                               ; preds = %10, %3
  ret void
}

; Function Attrs: inlinehint mustprogress uwtable
define linkonce_odr void @_ZSt8_DestroyIPN5arrow3ipc8internal14BufferMetadataEEvT_S5_(ptr noundef %0, ptr noundef %1) #6 comdat {
  %3 = alloca ptr, align 8
  %4 = alloca ptr, align 8
  store ptr %0, ptr %3, align 8, !tbaa !577
  store ptr %1, ptr %4, align 8, !tbaa !577
  %5 = load ptr, ptr %3, align 8, !tbaa !577
  %6 = load ptr, ptr %4, align 8, !tbaa !577
  call void @_ZNSt12_Destroy_auxILb1EE9__destroyIPN5arrow3ipc8internal14BufferMetadataEEEvT_S7_(ptr noundef %5, ptr noundef %6)
  ret void
}

; Function Attrs: mustprogress nounwind uwtable
define linkonce_odr void @_ZNSt12_Vector_baseIN5arrow3ipc8internal14BufferMetadataESaIS3_EE12_Vector_implC2Ev(ptr noundef nonnull align 8 dereferenceable(24) %0) unnamed_addr #0 comdat align 2 {
  %2 = alloca ptr, align 8
  store ptr %0, ptr %2, align 8, !tbaa !450
  %3 = load ptr, ptr %2, align 8
  call void @_ZNSaIN5arrow3ipc8internal14BufferMetadataEEC2Ev(ptr noundef nonnull align 1 dereferenceable(1) %3) #17
  call void @_ZNSt12_Vector_baseIN5arrow3ipc8internal14BufferMetadataESaIS3_EE17_Vector_impl_dataC2Ev(ptr noundef nonnull align 8 dereferenceable(24) %3) #17
  ret void
}

; Function Attrs: noinline noreturn nounwind uwtable
define linkonce_odr hidden void @__clang_call_terminate(ptr noundef %0) #12 comdat {
  %2 = call ptr @__cxa_begin_catch(ptr %0) #17
  call void @_ZSt9terminatev() #20
  unreachable
}

; Function Attrs: mustprogress nounwind uwtable
define linkonce_odr void @_ZNSt12_Vector_baseIN5arrow3ipc8internal14BufferMetadataESaIS3_EED2Ev(ptr noundef nonnull align 8 dereferenceable(24) %0) unnamed_addr #0 comdat align 2 personality ptr @__gxx_personality_v0 {
  %2 = alloca ptr, align 8
  store ptr %0, ptr %2, align 8, !tbaa !448
  %3 = load ptr, ptr %2, align 8
  %4 = getelementptr inbounds nuw %"struct.std::_Vector_base.44", ptr %3, i32 0, i32 0
  %5 = getelementptr inbounds nuw %"struct.std::_Vector_base<arrow::ipc::internal::BufferMetadata, std::allocator<arrow::ipc::internal::BufferMetadata>>::_Vector_impl_data", ptr %4, i32 0, i32 0
  %6 = load ptr, ptr %5, align 8, !tbaa !456
  %7 = getelementptr inbounds nuw %"struct.std::_Vector_base.44", ptr %3, i32 0, i32 0
  %8 = getelementptr inbounds nuw %"struct.std::_Vector_base<arrow::ipc::internal::BufferMetadata, std::allocator<arrow::ipc::internal::BufferMetadata>>::_Vector_impl_data", ptr %7, i32 0, i32 2
  %9 = load ptr, ptr %8, align 8, !tbaa !458
  %10 = getelementptr inbounds nuw %"struct.std::_Vector_base.44", ptr %3, i32 0, i32 0
  %11 = getelementptr inbounds nuw %"struct.std::_Vector_base<arrow::ipc::internal::BufferMetadata, std::allocator<arrow::ipc::internal::BufferMetadata>>::_Vector_impl_data", ptr %10, i32 0, i32 0
  %12 = load ptr, ptr %11, align 8, !tbaa !456
  %13 = ptrtoint ptr %9 to i64
  %14 = ptrtoint ptr %12 to i64
  %15 = sub i64 %13, %14
  %16 = sdiv exact i64 %15, 16
  invoke void @_ZNSt12_Vector_baseIN5arrow3ipc8internal14BufferMetadataESaIS3_EE13_M_deallocateEPS3_m(ptr noundef nonnull align 8 dereferenceable(24) %3, ptr noundef %6, i64 noundef %16)
          to label %17 unwind label %19

17:                                               ; preds = %1
  %18 = getelementptr inbounds nuw %"struct.std::_Vector_base.44", ptr %3, i32 0, i32 0
  call void @_ZNSt15__new_allocatorIN5arrow3ipc8internal14BufferMetadataEED2Ev(ptr noundef nonnull align 8 dereferenceable(24) %18) #17
  ret void

19:                                               ; preds = %1
  %20 = landingpad { ptr, i32 }
          catch ptr null
  %21 = extractvalue { ptr, i32 } %20, 0
  call void @__clang_call_terminate(ptr %21) #20
  unreachable
}

; Function Attrs: inlinehint mustprogress uwtable
define linkonce_odr void @_ZSt8_DestroyIPN5arrow3ipc8internal14BufferMetadataES3_EvT_S5_RSaIT0_E(ptr noundef %0, ptr noundef %1, ptr noundef nonnull align 1 dereferenceable(1) %2) #6 comdat {
  %4 = alloca ptr, align 8
  %5 = alloca ptr, align 8
  %6 = alloca ptr, align 8
  store ptr %0, ptr %4, align 8, !tbaa !577
  store ptr %1, ptr %5, align 8, !tbaa !577
  store ptr %2, ptr %6, align 8, !tbaa !452
  %7 = load ptr, ptr %4, align 8, !tbaa !577
  %8 = load ptr, ptr %5, align 8, !tbaa !577
  call void @_ZSt8_DestroyIPN5arrow3ipc8internal14BufferMetadataEEvT_S5_(ptr noundef %7, ptr noundef %8)
  ret void
}

; Function Attrs: mustprogress nounwind uwtable
define linkonce_odr noundef nonnull align 1 dereferenceable(1) ptr @_ZNSt12_Vector_baseIN5arrow3ipc8internal14BufferMetadataESaIS3_EE19_M_get_Tp_allocatorEv(ptr noundef nonnull align 8 dereferenceable(24) %0) #0 comdat align 2 {
  %2 = alloca ptr, align 8
  store ptr %0, ptr %2, align 8, !tbaa !448
  %3 = load ptr, ptr %2, align 8
  %4 = getelementptr inbounds nuw %"struct.std::_Vector_base.44", ptr %3, i32 0, i32 0
  ret ptr %4
}

; Function Attrs: mustprogress nounwind uwtable
define linkonce_odr void @_ZNSt12_Vector_baseIN5arrow3ipc8internal14BufferMetadataESaIS3_EEC2Ev(ptr noundef nonnull align 8 dereferenceable(24) %0) unnamed_addr #0 comdat align 2 {
  %2 = alloca ptr, align 8
  store ptr %0, ptr %2, align 8, !tbaa !448
  %3 = load ptr, ptr %2, align 8
  %4 = getelementptr inbounds nuw %"struct.std::_Vector_base.44", ptr %3, i32 0, i32 0
  call void @_ZNSt12_Vector_baseIN5arrow3ipc8internal14BufferMetadataESaIS3_EE12_Vector_implC2Ev(ptr noundef nonnull align 8 dereferenceable(24) %4) #17
  ret void
}

; Function Attrs: mustprogress nounwind uwtable
define linkonce_odr void @_ZNSt6vectorIN5arrow3ipc8internal14BufferMetadataESaIS3_EED2Ev(ptr noundef nonnull align 8 dereferenceable(24) %0) unnamed_addr #0 comdat align 2 personality ptr @__gxx_personality_v0 {
  %2 = alloca ptr, align 8
  store ptr %0, ptr %2, align 8, !tbaa !432
  %3 = load ptr, ptr %2, align 8
  %4 = getelementptr inbounds nuw %"struct.std::_Vector_base.44", ptr %3, i32 0, i32 0
  %5 = getelementptr inbounds nuw %"struct.std::_Vector_base<arrow::ipc::internal::BufferMetadata, std::allocator<arrow::ipc::internal::BufferMetadata>>::_Vector_impl_data", ptr %4, i32 0, i32 0
  %6 = load ptr, ptr %5, align 8, !tbaa !456
  %7 = getelementptr inbounds nuw %"struct.std::_Vector_base.44", ptr %3, i32 0, i32 0
  %8 = getelementptr inbounds nuw %"struct.std::_Vector_base<arrow::ipc::internal::BufferMetadata, std::allocator<arrow::ipc::internal::BufferMetadata>>::_Vector_impl_data", ptr %7, i32 0, i32 1
  %9 = load ptr, ptr %8, align 8, !tbaa !457
  %10 = call noundef nonnull align 1 dereferenceable(1) ptr @_ZNSt12_Vector_baseIN5arrow3ipc8internal14BufferMetadataESaIS3_EE19_M_get_Tp_allocatorEv(ptr noundef nonnull align 8 dereferenceable(24) %3) #17
  invoke void @_ZSt8_DestroyIPN5arrow3ipc8internal14BufferMetadataES3_EvT_S5_RSaIT0_E(ptr noundef %6, ptr noundef %9, ptr noundef nonnull align 1 dereferenceable(1) %10)
          to label %11 unwind label %12

11:                                               ; preds = %1
  call void @_ZNSt12_Vector_baseIN5arrow3ipc8internal14BufferMetadataESaIS3_EED2Ev(ptr noundef nonnull align 8 dereferenceable(24) %3) #17
  ret void

12:                                               ; preds = %1
  %13 = landingpad { ptr, i32 }
          catch ptr null
  %14 = extractvalue { ptr, i32 } %13, 0
  call void @__clang_call_terminate(ptr %14) #20
  unreachable
}

; Function Attrs: mustprogress nounwind uwtable
define linkonce_odr void @_ZNSt6vectorIN5arrow3ipc8internal14BufferMetadataESaIS3_EEC2Ev(ptr noundef nonnull align 8 dereferenceable(24) %0) unnamed_addr #0 comdat align 2 {
  %2 = alloca ptr, align 8
  store ptr %0, ptr %2, align 8, !tbaa !432
  %3 = load ptr, ptr %2, align 8
  call void @_ZNSt12_Vector_baseIN5arrow3ipc8internal14BufferMetadataESaIS3_EEC2Ev(ptr noundef nonnull align 8 dereferenceable(24) %3) #17
  ret void
}

; Function Attrs: mustprogress uwtable
define linkonce_odr void @_ZN5arrow3ipc8internal22SparseTensorSerializerC2ElPNS0_10IpcPayloadE(ptr noundef nonnull align 8 dereferenceable(104) %0, i64 noundef %1, ptr noundef %2) unnamed_addr #1 comdat align 2 personality ptr @__gxx_personality_v0 {
  %4 = alloca ptr, align 8
  %5 = alloca i64, align 8
  %6 = alloca ptr, align 8
  %7 = alloca ptr, align 8
  %8 = alloca i32, align 4
  store ptr %0, ptr %4, align 8, !tbaa !263
  store i64 %1, ptr %5, align 8, !tbaa !43
  store ptr %2, ptr %6, align 8, !tbaa !53
  %9 = load ptr, ptr %4, align 8
  %10 = getelementptr inbounds nuw %"class.arrow::ipc::internal::SparseTensorSerializer", ptr %9, i32 0, i32 0
  %11 = load ptr, ptr %6, align 8, !tbaa !53
  store ptr %11, ptr %10, align 8, !tbaa !265
  %12 = getelementptr inbounds nuw %"class.arrow::ipc::internal::SparseTensorSerializer", ptr %9, i32 0, i32 1
  call void @_ZNSt6vectorIN5arrow3ipc8internal14BufferMetadataESaIS3_EEC2Ev(ptr noundef nonnull align 8 dereferenceable(24) %12) #17
  %13 = getelementptr inbounds nuw %"class.arrow::ipc::internal::SparseTensorSerializer", ptr %9, i32 0, i32 2
  %14 = load i64, ptr %5, align 8, !tbaa !43
  store i64 %14, ptr %13, align 8, !tbaa !267
  %15 = getelementptr inbounds nuw %"class.arrow::ipc::internal::SparseTensorSerializer", ptr %9, i32 0, i32 3
  invoke void @_ZN5arrow3ipc15IpcWriteOptions8DefaultsEv(ptr dead_on_unwind writable sret(%"struct.arrow::ipc::IpcWriteOptions") align 8 %15)
          to label %16 unwind label %17

16:                                               ; preds = %3
  ret void

17:                                               ; preds = %3
  %18 = landingpad { ptr, i32 }
          cleanup
  %19 = extractvalue { ptr, i32 } %18, 0
  store ptr %19, ptr %7, align 8
  %20 = extractvalue { ptr, i32 } %18, 1
  store i32 %20, ptr %8, align 4
  call void @_ZNSt6vectorIN5arrow3ipc8internal14BufferMetadataESaIS3_EED2Ev(ptr noundef nonnull align 8 dereferenceable(24) %12) #17
  br label %21

21:                                               ; preds = %17
  %22 = load ptr, ptr %7, align 8
  %23 = load i32, ptr %8, align 4
  %24 = insertvalue { ptr, i32 } poison, ptr %22, 0
  %25 = insertvalue { ptr, i32 } %24, i32 %23, 1
  resume { ptr, i32 } %25
}

; Function Attrs: mustprogress uwtable
define void @_ZN5arrow3ipc22GetSparseTensorPayloadERKNS_12SparseTensorEPNS_10MemoryPoolEPNS0_10IpcPayloadE(ptr dead_on_unwind noalias writable sret(%"class.arrow::Status") align 8 %0, ptr noundef nonnull align 8 dereferenceable(104) %1, ptr noundef %2, ptr noundef %3) #1 personality ptr @__gxx_personality_v0 {
  %5 = alloca ptr, align 8
  %6 = alloca ptr, align 8
  %7 = alloca ptr, align 8
  %8 = alloca ptr, align 8
  %9 = alloca %"class.arrow::ipc::internal::SparseTensorSerializer", align 8
  %10 = alloca ptr, align 8
  %11 = alloca i32, align 4
  store ptr %0, ptr %5, align 8
  store ptr %1, ptr %6, align 8, !tbaa !261
  store ptr %2, ptr %7, align 8, !tbaa !239
  store ptr %3, ptr %8, align 8, !tbaa !53
  call void @llvm.lifetime.start.p0(i64 104, ptr %9) #17
  %12 = load ptr, ptr %8, align 8, !tbaa !53
  call void @_ZN5arrow3ipc8internal22SparseTensorSerializerC2ElPNS0_10IpcPayloadE(ptr noundef nonnull align 8 dereferenceable(104) %9, i64 noundef 0, ptr noundef %12)
  %13 = load ptr, ptr %6, align 8, !tbaa !261
  invoke void @_ZN5arrow3ipc8internal22SparseTensorSerializer8AssembleERKNS_12SparseTensorE(ptr dead_on_unwind writable sret(%"class.arrow::Status") align 8 %0, ptr noundef nonnull align 8 dereferenceable(104) %9, ptr noundef nonnull align 8 dereferenceable(104) %13)
          to label %14 unwind label %15

14:                                               ; preds = %4
  call void @_ZN5arrow3ipc8internal22SparseTensorSerializerD2Ev(ptr noundef nonnull align 8 dereferenceable(104) %9) #17
  call void @llvm.lifetime.end.p0(i64 104, ptr %9) #17
  ret void

15:                                               ; preds = %4
  %16 = landingpad { ptr, i32 }
          cleanup
  %17 = extractvalue { ptr, i32 } %16, 0
  store ptr %17, ptr %10, align 8
  %18 = extractvalue { ptr, i32 } %16, 1
  store i32 %18, ptr %11, align 4
  call void @_ZN5arrow3ipc8internal22SparseTensorSerializerD2Ev(ptr noundef nonnull align 8 dereferenceable(104) %9) #17
  call void @llvm.lifetime.end.p0(i64 104, ptr %9) #17
  br label %19

19:                                               ; preds = %15
  %20 = load ptr, ptr %10, align 8
  %21 = load i32, ptr %11, align 4
  %22 = insertvalue { ptr, i32 } poison, ptr %20, 0
  %23 = insertvalue { ptr, i32 } %22, i32 %21, 1
  resume { ptr, i32 } %23
}