; Function Attrs: mustprogress uwtable
define void @_ZN5arrow3ipc22GetSparseTensorPayloadERKNS_12SparseTensorEPNS_10MemoryPoolEPNS0_10IpcPayloadE(ptr dead_on_unwind noalias writable sret(%"class.arrow::Status") align 8 %0, ptr noundef nonnull align 8 dereferenceable(104) %1, ptr readnone captures(none) %2, ptr noundef %3) local_unnamed_addr #1 personality ptr @__gxx_personality_v0 {
  %5 = alloca %"class.arrow::ipc::internal::SparseTensorSerializer", align 8
  call void @llvm.lifetime.start.p0(i64 104, ptr nonnull %5) #28
  store ptr %3, ptr %5, align 8, !tbaa !462
  %6 = getelementptr inbounds nuw i8, ptr %5, i64 8
  %7 = getelementptr inbounds nuw i8, ptr %5, i64 40
  call void @llvm.memset.p0.i64(ptr noundef nonnull align 8 dereferenceable(32) %6, i8 0, i64 32, i1 false)
  invoke void @_ZN5arrow3ipc15IpcWriteOptions8DefaultsEv(ptr dead_on_unwind nonnull writable sret(%"struct.arrow::ipc::IpcWriteOptions") align 8 %7)
          to label %_ZN5arrow3ipc8internal22SparseTensorSerializerC2ElPNS0_10IpcPayloadE.exit unwind label %8

8:                                                ; preds = %4
  %9 = landingpad { ptr, i32 }
          cleanup
  %10 = load ptr, ptr %6, align 8, !tbaa !177
  %.not.i.i.i.i = icmp eq ptr %10, null
  br i1 %.not.i.i.i.i, label %common.resume, label %11

11:                                               ; preds = %8
  %12 = getelementptr inbounds nuw i8, ptr %5, i64 24
  %13 = load ptr, ptr %12, align 8, !tbaa !290
  %14 = ptrtoint ptr %13 to i64
  %15 = ptrtoint ptr %10 to i64
  %16 = sub i64 %14, %15
  call void @_ZdlPvm(ptr noundef nonnull %10, i64 noundef %16) #30
  br label %common.resume

common.resume:                                    ; preds = %8, %11, %48
  %common.resume.op = phi { ptr, i32 } [ %49, %48 ], [ %9, %11 ], [ %9, %8 ]
  resume { ptr, i32 } %common.resume.op

_ZN5arrow3ipc8internal22SparseTensorSerializerC2ElPNS0_10IpcPayloadE.exit: ; preds = %4
  invoke void @_ZN5arrow3ipc8internal22SparseTensorSerializer8AssembleERKNS_12SparseTensorE(ptr dead_on_unwind writable sret(%"class.arrow::Status") align 8 %0, ptr noundef nonnull align 8 dereferenceable(104) %5, ptr noundef nonnull align 8 dereferenceable(104) %1)
          to label %17 unwind label %48

17:                                               ; preds = %_ZN5arrow3ipc8internal22SparseTensorSerializerC2ElPNS0_10IpcPayloadE.exit
  %18 = getelementptr inbounds nuw i8, ptr %5, i64 72
  %19 = load ptr, ptr %18, align 8, !tbaa !129
  %.not.i.i.i.i3 = icmp eq ptr %19, null
  br i1 %.not.i.i.i.i3, label %_ZN5arrow3ipc15IpcWriteOptionsD2Ev.exit.i, label %20

20:                                               ; preds = %17
  %21 = getelementptr inbounds nuw i8, ptr %19, i64 8
  %22 = load atomic i64, ptr %21 acquire, align 8
  %23 = icmp eq i64 %22, 4294967297
  %24 = trunc i64 %22 to i32
  br i1 %23, label %25, label %33

25:                                               ; preds = %20
  store i32 0, ptr %21, align 8, !tbaa !139
  %26 = getelementptr inbounds nuw i8, ptr %19, i64 12
  store i32 0, ptr %26, align 4, !tbaa !141
  %27 = load ptr, ptr %19, align 8, !tbaa !57
  %28 = getelementptr inbounds nuw i8, ptr %27, i64 16
  %29 = load ptr, ptr %28, align 8
  call void %29(ptr noundef nonnull align 8 dereferenceable(16) %19) #28
  %30 = load ptr, ptr %19, align 8, !tbaa !57
  %31 = getelementptr inbounds nuw i8, ptr %30, i64 24
  %32 = load ptr, ptr %31, align 8
  call void %32(ptr noundef nonnull align 8 dereferenceable(16) %19) #28
  br label %_ZN5arrow3ipc15IpcWriteOptionsD2Ev.exit.i

33:                                               ; preds = %20
  %34 = load i8, ptr @__libc_single_threaded, align 1, !tbaa !119
  %.not.i.i.i.i.i = icmp eq i8 %34, 0
  br i1 %.not.i.i.i.i.i, label %37, label %35

35:                                               ; preds = %33
  %36 = add nsw i32 %24, -1
  store i32 %36, ptr %21, align 4, !tbaa !130
  br label %_ZN9__gnu_cxx27__exchange_and_add_dispatchEPii.exit.i.i.i.i.i

37:                                               ; preds = %33
  %38 = atomicrmw volatile add ptr %21, i32 -1 acq_rel, align 4
  br label %_ZN9__gnu_cxx27__exchange_and_add_dispatchEPii.exit.i.i.i.i.i

_ZN9__gnu_cxx27__exchange_and_add_dispatchEPii.exit.i.i.i.i.i: ; preds = %37, %35
  %.0.i.i.i.i.i.i = phi i32 [ %24, %35 ], [ %38, %37 ]
  %39 = icmp eq i32 %.0.i.i.i.i.i.i, 1
  br i1 %39, label %40, label %_ZN5arrow3ipc15IpcWriteOptionsD2Ev.exit.i, !prof !142

40:                                               ; preds = %_ZN9__gnu_cxx27__exchange_and_add_dispatchEPii.exit.i.i.i.i.i
  call void @_ZNSt16_Sp_counted_baseILN9__gnu_cxx12_Lock_policyE2EE24_M_release_last_use_coldEv(ptr noundef nonnull align 8 dereferenceable(16) %19) #28
  br label %_ZN5arrow3ipc15IpcWriteOptionsD2Ev.exit.i

_ZN5arrow3ipc15IpcWriteOptionsD2Ev.exit.i:        ; preds = %40, %_ZN9__gnu_cxx27__exchange_and_add_dispatchEPii.exit.i.i.i.i.i, %25, %17
  %41 = load ptr, ptr %6, align 8, !tbaa !177
  %.not.i.i.i1.i = icmp eq ptr %41, null
  br i1 %.not.i.i.i1.i, label %_ZN5arrow3ipc8internal22SparseTensorSerializerD2Ev.exit, label %42

42:                                               ; preds = %_ZN5arrow3ipc15IpcWriteOptionsD2Ev.exit.i
  %43 = getelementptr inbounds nuw i8, ptr %5, i64 24
  %44 = load ptr, ptr %43, align 8, !tbaa !290
  %45 = ptrtoint ptr %44 to i64
  %46 = ptrtoint ptr %41 to i64
  %47 = sub i64 %45, %46
  call void @_ZdlPvm(ptr noundef nonnull %41, i64 noundef %47) #30
  br label %_ZN5arrow3ipc8internal22SparseTensorSerializerD2Ev.exit

_ZN5arrow3ipc8internal22SparseTensorSerializerD2Ev.exit: ; preds = %_ZN5arrow3ipc15IpcWriteOptionsD2Ev.exit.i, %42
  call void @llvm.lifetime.end.p0(i64 104, ptr nonnull %5) #28
  ret void

48:                                               ; preds = %_ZN5arrow3ipc8internal22SparseTensorSerializerC2ElPNS0_10IpcPayloadE.exit
  %49 = landingpad { ptr, i32 }
          cleanup
  call void @_ZN5arrow3ipc8internal22SparseTensorSerializerD2Ev(ptr noundef nonnull align 8 dereferenceable(104) %5) #28
  call void @llvm.lifetime.end.p0(i64 104, ptr nonnull %5) #28
  br label %common.resume
}